; Function Attrs: nounwind uwtable
define ptr @l_Array_forIn_x27Unsafe_loop___at_Lean_Elab_Term_runTactic___spec__1___boxed(ptr noundef %0, ptr noundef %1, ptr noundef %2, ptr noundef %3, ptr noundef %4, ptr noundef %5, ptr noundef %6, ptr noundef %7, ptr noundef %8, ptr noundef %9, ptr noundef %10, ptr noundef %11, ptr noundef %12) local_unnamed_addr #0 {
  %14 = getelementptr i8, ptr %3, i64 8
  %.val40 = load i64, ptr %14, align 8, !tbaa !13
  %15 = ptrtoint ptr %3 to i64
  %16 = and i64 %15, 1
  %.not = icmp eq i64 %16, 0
  br i1 %.not, label %17, label %lean_dec.exit27

17:                                               ; preds = %13
  %18 = load i32, ptr %3, align 4, !tbaa !7
  %19 = icmp sgt i32 %18, 1
  br i1 %19, label %20, label %22, !prof !12

20:                                               ; preds = %17
  %21 = add nsw i32 %18, -1
  store i32 %21, ptr %3, align 4, !tbaa !7
  br label %lean_dec.exit27

22:                                               ; preds = %17
  %.not.i = icmp eq i32 %18, 0
  br i1 %.not.i, label %lean_dec.exit27, label %23

23:                                               ; preds = %22
  tail call void @lean_dec_ref_cold(ptr noundef nonnull %3) #7
  br label %lean_dec.exit27

lean_dec.exit27:                                  ; preds = %23, %22, %20, %13
  %24 = getelementptr i8, ptr %4, i64 8
  %.val = load i64, ptr %24, align 8, !tbaa !13
  %25 = ptrtoint ptr %4 to i64
  %26 = and i64 %25, 1
  %.not41 = icmp eq i64 %26, 0
  br i1 %.not41, label %27, label %lean_dec.exit26

27:                                               ; preds = %lean_dec.exit27
  %28 = load i32, ptr %4, align 4, !tbaa !7
  %29 = icmp sgt i32 %28, 1
  br i1 %29, label %30, label %32, !prof !12

30:                                               ; preds = %27
  %31 = add nsw i32 %28, -1
  store i32 %31, ptr %4, align 4, !tbaa !7
  br label %lean_dec.exit26

32:                                               ; preds = %27
  %.not.i28 = icmp eq i32 %28, 0
  br i1 %.not.i28, label %lean_dec.exit26, label %33

33:                                               ; preds = %32
  tail call void @lean_dec_ref_cold(ptr noundef nonnull %4) #7
  br label %lean_dec.exit26

lean_dec.exit26:                                  ; preds = %33, %32, %30, %lean_dec.exit27
  %34 = tail call ptr @l_Array_forIn_x27Unsafe_loop___at_Lean_Elab_Term_runTactic___spec__1(ptr poison, ptr poison, ptr noundef %2, i64 noundef %.val40, i64 noundef %.val, ptr noundef %5, ptr poison, ptr poison, ptr noundef %8, ptr noundef %9, ptr noundef %10, ptr noundef %11, ptr noundef %12)
  %35 = ptrtoint ptr %7 to i64
  %36 = and i64 %35, 1
  %.not42 = icmp eq i64 %36, 0
  br i1 %.not42, label %37, label %lean_dec.exit25

37:                                               ; preds = %lean_dec.exit26
  %38 = load i32, ptr %7, align 4, !tbaa !7
  %39 = icmp sgt i32 %38, 1
  br i1 %39, label %40, label %42, !prof !12

40:                                               ; preds = %37
  %41 = add nsw i32 %38, -1
  store i32 %41, ptr %7, align 4, !tbaa !7
  br label %lean_dec.exit25

42:                                               ; preds = %37
  %.not.i30 = icmp eq i32 %38, 0
  br i1 %.not.i30, label %lean_dec.exit25, label %43

43:                                               ; preds = %42
  tail call void @lean_dec_ref_cold(ptr noundef nonnull %7) #7
  br label %lean_dec.exit25

lean_dec.exit25:                                  ; preds = %43, %42, %40, %lean_dec.exit26
  %44 = ptrtoint ptr %6 to i64
  %45 = and i64 %44, 1
  %.not43 = icmp eq i64 %45, 0
  br i1 %.not43, label %46, label %lean_dec.exit24

46:                                               ; preds = %lean_dec.exit25
  %47 = load i32, ptr %6, align 4, !tbaa !7
  %48 = icmp sgt i32 %47, 1
  br i1 %48, label %49, label %51, !prof !12

49:                                               ; preds = %46
  %50 = add nsw i32 %47, -1
  store i32 %50, ptr %6, align 4, !tbaa !7
  br label %lean_dec.exit24

51:                                               ; preds = %46
  %.not.i32 = icmp eq i32 %47, 0
  br i1 %.not.i32, label %lean_dec.exit24, label %52

52:                                               ; preds = %51
  tail call void @lean_dec_ref_cold(ptr noundef nonnull %6) #7
  br label %lean_dec.exit24

lean_dec.exit24:                                  ; preds = %52, %51, %49, %lean_dec.exit25
  %53 = ptrtoint ptr %2 to i64
  %54 = and i64 %53, 1
  %.not44 = icmp eq i64 %54, 0
  br i1 %.not44, label %55, label %lean_dec.exit23

55:                                               ; preds = %lean_dec.exit24
  %56 = load i32, ptr %2, align 4, !tbaa !7
  %57 = icmp sgt i32 %56, 1
  br i1 %57, label %58, label %60, !prof !12

58:                                               ; preds = %55
  %59 = add nsw i32 %56, -1
  store i32 %59, ptr %2, align 4, !tbaa !7
  br label %lean_dec.exit23

60:                                               ; preds = %55
  %.not.i34 = icmp eq i32 %56, 0
  br i1 %.not.i34, label %lean_dec.exit23, label %61

61:                                               ; preds = %60
  tail call void @lean_dec_ref_cold(ptr noundef nonnull %2) #7
  br label %lean_dec.exit23

lean_dec.exit23:                                  ; preds = %61, %60, %58, %lean_dec.exit24
  %62 = ptrtoint ptr %1 to i64
  %63 = and i64 %62, 1
  %.not45 = icmp eq i64 %63, 0
  br i1 %.not45, label %64, label %lean_dec.exit22

64:                                               ; preds = %lean_dec.exit23
  %65 = load i32, ptr %1, align 4, !tbaa !7
  %66 = icmp sgt i32 %65, 1
  br i1 %66, label %67, label %69, !prof !12

67:                                               ; preds = %64
  %68 = add nsw i32 %65, -1
  store i32 %68, ptr %1, align 4, !tbaa !7
  br label %lean_dec.exit22

69:                                               ; preds = %64
  %.not.i36 = icmp eq i32 %65, 0
  br i1 %.not.i36, label %lean_dec.exit22, label %70

70:                                               ; preds = %69
  tail call void @lean_dec_ref_cold(ptr noundef nonnull %1) #7
  br label %lean_dec.exit22

lean_dec.exit22:                                  ; preds = %70, %69, %67, %lean_dec.exit23
  %71 = ptrtoint ptr %0 to i64
  %72 = and i64 %71, 1
  %.not46 = icmp eq i64 %72, 0
  br i1 %.not46, label %73, label %lean_dec.exit

73:                                               ; preds = %lean_dec.exit22
  %74 = load i32, ptr %0, align 4, !tbaa !7
  %75 = icmp sgt i32 %74, 1
  br i1 %75, label %76, label %78, !prof !12

76:                                               ; preds = %73
  %77 = add nsw i32 %74, -1
  store i32 %77, ptr %0, align 4, !tbaa !7
  br label %lean_dec.exit

78:                                               ; preds = %73
  %.not.i38 = icmp eq i32 %74, 0
  br i1 %.not.i38, label %lean_dec.exit, label %79

79:                                               ; preds = %78
  tail call void @lean_dec_ref_cold(ptr noundef nonnull %0) #7
  br label %lean_dec.exit

lean_dec.exit:                                    ; preds = %79, %78, %76, %lean_dec.exit22
  ret ptr %34
}